(dp0
V17219202
p1
V85aa417e-7087-11e4-aa15-0d2bcad3a14c_9c0fdc04-7086-11e4-8ac0-8923b7d16e0d
p2
sV17219215
p3
V85aa417e-7087-11e4-aa15-0d2bcad3a14c_bebddfd2-711a-11e4-9b57-edf8d3c2479a
p4
sV17219201
p5
V7895795a-1212-11e4-b5ef-cd494ab11aea_7895795a-1212-11e4-b5ef-cd494ab11aea
p6
sV17219210
p7
V85aa417e-7087-11e4-aa15-0d2bcad3a14c_9a7cc4c8-708c-11e4-9be4-2f0551dac467
p8
sV17219204
p9
V85aa417e-7087-11e4-aa15-0d2bcad3a14c_8350a5e4-7064-11e4-b504-bda33a359d52
p10
sV17219205
p11
V018c2998-9bd0-11e3-bab6-00e04c0b9190_018c2998-9bd0-11e3-bab6-00e04c0b9190
p12
sV17219209
p13
V85aa417e-7087-11e4-aa15-0d2bcad3a14c_85aa417e-7087-11e4-aa15-0d2bcad3a14c
p14
sV1721610171
p15
V43302a4c-63e5-11e4-98f7-a3d52ce5b88e_43302a4c-63e5-11e4-98f7-a3d52ce5b88e
p16
sV17219213
p17
V61f116a6-5028-11e4-9cfd-494078807c43_0febcc8e-630b-11e4-aeb4-e5890567d02f
p18
sV17216215
p19
Vee001a38-8661-11e4-89ed-557a0d535ef4_ee001a38-8661-11e4-89ed-557a0d535ef4
p20
sV\u005cN
p21
V85aa417e-7087-11e4-aa15-0d2bcad3a14c_bebddfd2-711a-11e4-9b57-edf8d3c2479a
p22
s.