(dp0
S'fef49c3a-4f78-11e4-827f-bf12cf2595f2'
p1
S'61f116a6-5028-11e4-9cfd-494078807c43'
p2
sS'9c0fdc04-7086-11e4-8ac0-8923b7d16e0d'
p3
S'85aa417e-7087-11e4-aa15-0d2bcad3a14c'
p4
sg4
g4
sS'bebddfd2-711a-11e4-9b57-edf8d3c2479a'
p5
g4
sS'ee001a38-8661-11e4-89ed-557a0d535ef4'
p6
g6
sS'7895795a-1212-11e4-b5ef-cd494ab11aea'
p7
g7
sS'018c2998-9bd0-11e3-bab6-00e04c0b9190'
p8
S'018c2998-9bd0-11e3-bab6-00e04c0b9190'
p9
sS'9a7cc4c8-708c-11e4-9be4-2f0551dac467'
p10
g4
sS'61f116a6-5028-11e4-9cfd-494078807c43'
p11
g2
sS'8350a5e4-7064-11e4-b504-bda33a359d52'
p12
g4
sS'd256911a-6314-11e4-a4c0-a74a1ed4b87b'
p13
g13
sS'f1e78c6c-5f0b-11e4-b4a2-dbb303e202eb'
p14
g2
sS'0febcc8e-630b-11e4-aeb4-e5890567d02f'
p15
g2
sS'43302a4c-63e5-11e4-98f7-a3d52ce5b88e'
p16
g16
sS'20449c3a-4f78-11e4-827f-bf12cf259204'
p17
g7
sS'0c8d1be6-5f0b-11e4-b431-9da0e4471bee'
p18
g2
sS'02cf485e-6ba9-11e4-bd4c-8fbcf82edf9e'
p19
S'02cf485e-6ba9-11e4-bd4c-8fbcf82edf9e'
p20
s.